target datalayout = "e-m:e-p270:32:32-p271:32:32-p272:64:64-i64:64-i128:128-f80:128-n8:16:32:64-S128"
target triple = "x86_64-pc-linux-gnu"

%struct._GList = type { ptr, ptr, ptr }
%struct.dt_tag_t = type { i32, ptr, ptr, ptr, i32, i32, i32 }

; Function Attrs: nounwind uwtable
define void @dt_tag_free_result(ptr noundef %0) #0 {
  %2 = alloca ptr, align 8
  store ptr %0, ptr %2, align 8, !tbaa !66
  %3 = load ptr, ptr %2, align 8, !tbaa !66
  %4 = icmp ne ptr %3, null
  br i1 %4, label %5, label %12

5:                                                ; preds = %1
  %6 = load ptr, ptr %2, align 8, !tbaa !66
  %7 = load ptr, ptr %6, align 8, !tbaa !59
  %8 = icmp ne ptr %7, null
  br i1 %8, label %9, label %12

9:                                                ; preds = %5
  %10 = load ptr, ptr %2, align 8, !tbaa !66
  %11 = load ptr, ptr %10, align 8, !tbaa !59
  call void @g_list_free_full(ptr noundef %11, ptr noundef @_free_result_item)
  br label %12

12:                                               ; preds = %9, %5, %1
  ret void
}

; Function Attrs: nounwind uwtable
define ptr @dt_tag_get_hierarchical(i32 noundef %0, i32 noundef %1) #0 {
  %3 = alloca ptr, align 8
  %4 = alloca i32, align 4
  %5 = alloca i32, align 4
  %6 = alloca ptr, align 8
  %7 = alloca ptr, align 8
  %8 = alloca i32, align 4
  %9 = alloca i32, align 4
  %10 = alloca ptr, align 8
  %11 = alloca ptr, align 8
  store i32 %0, ptr %4, align 4, !tbaa !52
  store i32 %1, ptr %5, align 4, !tbaa !52
  call void @llvm.lifetime.start.p0(i64 8, ptr %6) #8
  store ptr null, ptr %6, align 8, !tbaa !59
  call void @llvm.lifetime.start.p0(i64 8, ptr %7) #8
  store ptr null, ptr %7, align 8, !tbaa !59
  call void @llvm.lifetime.start.p0(i64 4, ptr %8) #8
  %12 = load i32, ptr %4, align 4, !tbaa !52
  %13 = load i32, ptr %5, align 4, !tbaa !52
  %14 = call i32 @dt_tag_get_attached(i32 noundef %12, ptr noundef %6, i32 noundef %13)
  store i32 %14, ptr %8, align 4, !tbaa !52
  %15 = load i32, ptr %8, align 4, !tbaa !52
  %16 = icmp ult i32 %15, 1
  br i1 %16, label %17, label %18

17:                                               ; preds = %2
  store ptr null, ptr %3, align 8
  store i32 1, ptr %9, align 4
  br label %48

18:                                               ; preds = %2
  call void @llvm.lifetime.start.p0(i64 8, ptr %10) #8
  %19 = load ptr, ptr %6, align 8, !tbaa !59
  store ptr %19, ptr %10, align 8, !tbaa !59
  br label %20

20:                                               ; preds = %42, %18
  %21 = load ptr, ptr %10, align 8, !tbaa !59
  %22 = icmp ne ptr %21, null
  br i1 %22, label %24, label %23

23:                                               ; preds = %20
  store i32 2, ptr %9, align 4
  call void @llvm.lifetime.end.p0(i64 8, ptr %10) #8
  br label %44

24:                                               ; preds = %20
  call void @llvm.lifetime.start.p0(i64 8, ptr %11) #8
  %25 = load ptr, ptr %10, align 8, !tbaa !59
  %26 = getelementptr inbounds nuw %struct._GList, ptr %25, i32 0, i32 0
  %27 = load ptr, ptr %26, align 8, !tbaa !60
  store ptr %27, ptr %11, align 8, !tbaa !78
  %28 = load ptr, ptr %7, align 8, !tbaa !59
  %29 = load ptr, ptr %11, align 8, !tbaa !78
  %30 = getelementptr inbounds nuw %struct.dt_tag_t, ptr %29, i32 0, i32 1
  %31 = load ptr, ptr %30, align 8, !tbaa !80
  %32 = call noalias ptr @g_strdup(ptr noundef %31)
  %33 = call ptr @g_list_prepend(ptr noundef %28, ptr noundef %32)
  store ptr %33, ptr %7, align 8, !tbaa !59
  call void @llvm.lifetime.end.p0(i64 8, ptr %11) #8
  br label %34

34:                                               ; preds = %24
  %35 = load ptr, ptr %10, align 8, !tbaa !59
  %36 = icmp ne ptr %35, null
  br i1 %36, label %37, label %41

37:                                               ; preds = %34
  %38 = load ptr, ptr %10, align 8, !tbaa !59
  %39 = getelementptr inbounds nuw %struct._GList, ptr %38, i32 0, i32 1
  %40 = load ptr, ptr %39, align 8, !tbaa !64
  br label %42

41:                                               ; preds = %34
  br label %42

42:                                               ; preds = %41, %37
  %43 = phi ptr [ %40, %37 ], [ null, %41 ]
  store ptr %43, ptr %10, align 8, !tbaa !59
  br label %20

44:                                               ; preds = %23
  call void @dt_tag_free_result(ptr noundef %6)
  %45 = load ptr, ptr %7, align 8, !tbaa !59
  %46 = call ptr @g_list_reverse(ptr noundef %45)
  store ptr %46, ptr %7, align 8, !tbaa !59
  %47 = load ptr, ptr %7, align 8, !tbaa !59
  store ptr %47, ptr %3, align 8
  store i32 1, ptr %9, align 4
  br label %48

48:                                               ; preds = %44, %17
  call void @llvm.lifetime.end.p0(i64 4, ptr %8) #8
  call void @llvm.lifetime.end.p0(i64 8, ptr %7) #8
  call void @llvm.lifetime.end.p0(i64 8, ptr %6) #8
  %49 = load ptr, ptr %3, align 8
  ret ptr %49
}