; Function Attrs: nounwind uwtable
define ptr @dt_tag_get_hierarchical(i32 noundef %0, i32 noundef %1) local_unnamed_addr #0 {
  %3 = alloca ptr, align 8
  call void @llvm.lifetime.start.p0(i64 8, ptr nonnull %3) #11
  store ptr null, ptr %3, align 8, !tbaa !63
  %4 = call i32 @dt_tag_get_attached(i32 noundef %0, ptr noundef nonnull %3, i32 noundef %1)
  %5 = icmp eq i32 %4, 0
  br i1 %5, label %13, label %.preheader

.preheader:                                       ; preds = %2
  %.01113 = load ptr, ptr %3, align 8, !tbaa !63
  %.not14 = icmp eq ptr %.01113, null
  br i1 %.not14, label %dt_tag_free_result.exit, label %.lr.ph

._crit_edge:                                      ; preds = %.lr.ph
  tail call void @g_list_free_full(ptr noundef nonnull %.01113, ptr noundef nonnull @_free_result_item) #11
  br label %dt_tag_free_result.exit

dt_tag_free_result.exit:                          ; preds = %.preheader, %._crit_edge
  %.012.lcssa18 = phi ptr [ %11, %._crit_edge ], [ null, %.preheader ]
  %6 = tail call ptr @g_list_reverse(ptr noundef %.012.lcssa18) #11
  br label %13

.lr.ph:                                           ; preds = %.preheader, %.lr.ph
  %.01116 = phi ptr [ %.011, %.lr.ph ], [ %.01113, %.preheader ]
  %.01215 = phi ptr [ %11, %.lr.ph ], [ null, %.preheader ]
  %7 = load ptr, ptr %.01116, align 8, !tbaa !58
  %8 = getelementptr inbounds nuw i8, ptr %7, i64 8
  %9 = load ptr, ptr %8, align 8, !tbaa !70
  %10 = tail call noalias ptr @g_strdup(ptr noundef %9) #11
  %11 = tail call ptr @g_list_prepend(ptr noundef %.01215, ptr noundef %10) #11
  %12 = getelementptr inbounds nuw i8, ptr %.01116, i64 8
  %.011 = load ptr, ptr %12, align 8, !tbaa !63
  %.not = icmp eq ptr %.011, null
  br i1 %.not, label %._crit_edge, label %.lr.ph

13:                                               ; preds = %2, %dt_tag_free_result.exit
  %.0 = phi ptr [ %6, %dt_tag_free_result.exit ], [ null, %2 ]
  call void @llvm.lifetime.end.p0(i64 8, ptr nonnull %3) #11
  ret ptr %.0
}